target datalayout = "e-m:e-p270:32:32-p271:32:32-p272:64:64-i64:64-i128:128-f80:128-n8:16:32:64-S128"
target triple = "x86_64-pc-linux-gnu"

%struct.SDL_Renderer = type { ptr, ptr, ptr, ptr, ptr, ptr, ptr, ptr, ptr, ptr, ptr, ptr, ptr, ptr, ptr, ptr, ptr, ptr, ptr, ptr, ptr, ptr, ptr, ptr, ptr, ptr, ptr, ptr, ptr, ptr, i32, i8, ptr, i8, i8, i8, i64, i64, ptr, %struct.SDL_RenderViewState, %struct.SDL_FPoint, i32, i32, ptr, ptr, ptr, i32, float, float, float, float, %struct.SDL_FColor, i32, i32, i32, ptr, ptr, ptr, ptr, i32, %struct.SDL_FColor, float, %struct.SDL_Rect, %struct.SDL_Rect, i8, i8, i8, i8, ptr, i64, i64, i8, ptr, ptr, i32, ptr, i8, ptr, ptr }
%struct.SDL_RenderViewState = type { i32, i32, %struct.SDL_Rect, %struct.SDL_Rect, %struct.SDL_Rect, %struct.SDL_Rect, i8, %struct.SDL_FPoint, i32, i32, i32, %struct.SDL_FRect, %struct.SDL_FRect, %struct.SDL_FPoint, %struct.SDL_FPoint, %struct.SDL_FPoint }
%struct.SDL_FRect = type { float, float, float, float }
%struct.SDL_FPoint = type { float, float }
%struct.SDL_FColor = type { float, float, float, float }
%struct.SDL_Rect = type { i32, i32, i32, i32 }

; Function Attrs: nounwind uwtable
define internal zeroext i1 @RenderPointsWithRects(ptr noundef %0, ptr noundef %1, i32 noundef %2) #0 {
  %4 = alloca i1, align 1
  %5 = alloca ptr, align 8
  %6 = alloca ptr, align 8
  %7 = alloca i32, align 4
  %8 = alloca i8, align 1
  %9 = alloca i8, align 1
  %10 = alloca ptr, align 8
  %11 = alloca i32, align 4
  %12 = alloca i32, align 4
  %13 = alloca ptr, align 8
  %14 = alloca float, align 4
  %15 = alloca float, align 4
  store ptr %0, ptr %5, align 8
  store ptr %1, ptr %6, align 8
  store i32 %2, ptr %7, align 4
  call void @llvm.lifetime.start.p0(i64 1, ptr %8) #10
  call void @llvm.lifetime.start.p0(i64 1, ptr %9) #10
  call void @llvm.lifetime.start.p0(i64 8, ptr %10) #10
  call void @llvm.lifetime.start.p0(i64 4, ptr %11) #10
  %16 = load i32, ptr %7, align 4
  %17 = icmp slt i32 %16, 1
  br i1 %17, label %18, label %19

18:                                               ; preds = %3
  store i1 true, ptr %4, align 1
  store i32 1, ptr %12, align 4
  br label %114

19:                                               ; preds = %3
  %20 = load i32, ptr %7, align 4
  %21 = sext i32 %20 to i64
  %22 = mul i64 16, %21
  %23 = icmp ult i64 %22, 128
  %24 = zext i1 %23 to i8
  store i8 %24, ptr %9, align 1
  %25 = load i8, ptr %9, align 1, !range !5, !noundef !6
  %26 = trunc i8 %25 to i1
  br i1 %26, label %27, label %32

27:                                               ; preds = %19
  %28 = load i32, ptr %7, align 4
  %29 = sext i32 %28 to i64
  %30 = mul i64 16, %29
  %31 = alloca i8, i64 %30, align 16
  br label %37

32:                                               ; preds = %19
  %33 = load i32, ptr %7, align 4
  %34 = sext i32 %33 to i64
  %35 = mul i64 16, %34
  %36 = call noalias ptr @SDL_malloc_REAL(i64 noundef %35)
  br label %37

37:                                               ; preds = %32, %27
  %38 = phi ptr [ %31, %27 ], [ %36, %32 ]
  store ptr %38, ptr %10, align 8
  %39 = load ptr, ptr %10, align 8
  %40 = icmp ne ptr %39, null
  br i1 %40, label %42, label %41

41:                                               ; preds = %37
  store i1 false, ptr %4, align 1
  store i32 1, ptr %12, align 4
  br label %114

42:                                               ; preds = %37
  call void @llvm.lifetime.start.p0(i64 8, ptr %13) #10
  %43 = load ptr, ptr %5, align 8
  %44 = getelementptr inbounds nuw %struct.SDL_Renderer, ptr %43, i32 0, i32 38
  %45 = load ptr, ptr %44, align 8
  store ptr %45, ptr %13, align 8
  call void @llvm.lifetime.start.p0(i64 4, ptr %14) #10
  %46 = load ptr, ptr %13, align 8
  %47 = getelementptr inbounds nuw %struct.SDL_RenderViewState, ptr %46, i32 0, i32 15
  %48 = getelementptr inbounds nuw %struct.SDL_FPoint, ptr %47, i32 0, i32 0
  %49 = load float, ptr %48, align 4
  store float %49, ptr %14, align 4
  call void @llvm.lifetime.start.p0(i64 4, ptr %15) #10
  %50 = load ptr, ptr %13, align 8
  %51 = getelementptr inbounds nuw %struct.SDL_RenderViewState, ptr %50, i32 0, i32 15
  %52 = getelementptr inbounds nuw %struct.SDL_FPoint, ptr %51, i32 0, i32 1
  %53 = load float, ptr %52, align 4
  store float %53, ptr %15, align 4
  store i32 0, ptr %11, align 4
  br label %54

54:                                               ; preds = %97, %42
  %55 = load i32, ptr %11, align 4
  %56 = load i32, ptr %7, align 4
  %57 = icmp slt i32 %55, %56
  br i1 %57, label %58, label %100

58:                                               ; preds = %54
  %59 = load ptr, ptr %6, align 8
  %60 = load i32, ptr %11, align 4
  %61 = sext i32 %60 to i64
  %62 = getelementptr inbounds %struct.SDL_FPoint, ptr %59, i64 %61
  %63 = getelementptr inbounds nuw %struct.SDL_FPoint, ptr %62, i32 0, i32 0
  %64 = load float, ptr %63, align 4
  %65 = load float, ptr %14, align 4
  %66 = fmul float %64, %65
  %67 = load ptr, ptr %10, align 8
  %68 = load i32, ptr %11, align 4
  %69 = sext i32 %68 to i64
  %70 = getelementptr inbounds %struct.SDL_FRect, ptr %67, i64 %69
  %71 = getelementptr inbounds nuw %struct.SDL_FRect, ptr %70, i32 0, i32 0
  store float %66, ptr %71, align 4
  %72 = load ptr, ptr %6, align 8
  %73 = load i32, ptr %11, align 4
  %74 = sext i32 %73 to i64
  %75 = getelementptr inbounds %struct.SDL_FPoint, ptr %72, i64 %74
  %76 = getelementptr inbounds nuw %struct.SDL_FPoint, ptr %75, i32 0, i32 1
  %77 = load float, ptr %76, align 4
  %78 = load float, ptr %15, align 4
  %79 = fmul float %77, %78
  %80 = load ptr, ptr %10, align 8
  %81 = load i32, ptr %11, align 4
  %82 = sext i32 %81 to i64
  %83 = getelementptr inbounds %struct.SDL_FRect, ptr %80, i64 %82
  %84 = getelementptr inbounds nuw %struct.SDL_FRect, ptr %83, i32 0, i32 1
  store float %79, ptr %84, align 4
  %85 = load float, ptr %14, align 4
  %86 = load ptr, ptr %10, align 8
  %87 = load i32, ptr %11, align 4
  %88 = sext i32 %87 to i64
  %89 = getelementptr inbounds %struct.SDL_FRect, ptr %86, i64 %88
  %90 = getelementptr inbounds nuw %struct.SDL_FRect, ptr %89, i32 0, i32 2
  store float %85, ptr %90, align 4
  %91 = load float, ptr %15, align 4
  %92 = load ptr, ptr %10, align 8
  %93 = load i32, ptr %11, align 4
  %94 = sext i32 %93 to i64
  %95 = getelementptr inbounds %struct.SDL_FRect, ptr %92, i64 %94
  %96 = getelementptr inbounds nuw %struct.SDL_FRect, ptr %95, i32 0, i32 3
  store float %91, ptr %96, align 4
  br label %97

97:                                               ; preds = %58
  %98 = load i32, ptr %11, align 4
  %99 = add nsw i32 %98, 1
  store i32 %99, ptr %11, align 4
  br label %54, !llvm.loop !26

100:                                              ; preds = %54
  %101 = load ptr, ptr %5, align 8
  %102 = load ptr, ptr %10, align 8
  %103 = load i32, ptr %7, align 4
  %104 = call zeroext i1 @QueueCmdFillRects(ptr noundef %101, ptr noundef %102, i32 noundef %103)
  %105 = zext i1 %104 to i8
  store i8 %105, ptr %8, align 1
  %106 = load i8, ptr %9, align 1, !range !5, !noundef !6
  %107 = trunc i8 %106 to i1
  br i1 %107, label %108, label %109

108:                                              ; preds = %100
  br label %111

109:                                              ; preds = %100
  %110 = load ptr, ptr %10, align 8
  call void @SDL_free_REAL(ptr noundef %110)
  br label %111

111:                                              ; preds = %109, %108
  %112 = load i8, ptr %8, align 1, !range !5, !noundef !6
  %113 = trunc i8 %112 to i1
  store i1 %113, ptr %4, align 1
  store i32 1, ptr %12, align 4
  call void @llvm.lifetime.end.p0(i64 4, ptr %15) #10
  call void @llvm.lifetime.end.p0(i64 4, ptr %14) #10
  call void @llvm.lifetime.end.p0(i64 8, ptr %13) #10
  br label %114

114:                                              ; preds = %111, %41, %18
  call void @llvm.lifetime.end.p0(i64 4, ptr %11) #10
  call void @llvm.lifetime.end.p0(i64 8, ptr %10) #10
  call void @llvm.lifetime.end.p0(i64 1, ptr %9) #10
  call void @llvm.lifetime.end.p0(i64 1, ptr %8) #10
  %115 = load i1, ptr %4, align 1
  ret i1 %115
}