; Function Attrs: nounwind uwtable
define internal fastcc noundef zeroext i1 @RenderPointsWithRects(ptr noundef %0, ptr noundef nonnull readonly captures(none) %1, i32 noundef %2) unnamed_addr #0 {
  %4 = icmp slt i32 %2, 1
  br i1 %4, label %31, label %5

5:                                                ; preds = %3
  %6 = zext nneg i32 %2 to i64
  %7 = shl nuw nsw i64 %6, 4
  %8 = icmp samesign ult i32 %2, 8
  br i1 %8, label %.thread, label %10

.thread:                                          ; preds = %5
  %9 = alloca i8, i64 %7, align 16
  br label %.lr.ph.preheader

10:                                               ; preds = %5
  %11 = tail call noalias ptr @SDL_malloc_REAL(i64 noundef %7) #15
  %.not = icmp eq ptr %11, null
  br i1 %.not, label %31, label %.lr.ph.preheader

.lr.ph.preheader:                                 ; preds = %10, %.thread
  %12 = phi ptr [ %9, %.thread ], [ %11, %10 ]
  %13 = getelementptr inbounds nuw i8, ptr %0, i64 280
  %14 = load ptr, ptr %13, align 8
  %15 = getelementptr inbounds nuw i8, ptr %14, i64 144
  %16 = load float, ptr %15, align 4
  %17 = getelementptr inbounds nuw i8, ptr %14, i64 148
  %18 = load float, ptr %17, align 4
  %wide.trip.count = zext nneg i32 %2 to i64
  br label %.lr.ph

.lr.ph:                                           ; preds = %.lr.ph.preheader, %.lr.ph
  %indvars.iv = phi i64 [ 0, %.lr.ph.preheader ], [ %indvars.iv.next, %.lr.ph ]
  %19 = getelementptr inbounds nuw %struct.SDL_FPoint, ptr %1, i64 %indvars.iv
  %20 = load float, ptr %19, align 4
  %21 = fmul float %16, %20
  %22 = getelementptr inbounds nuw %struct.SDL_FRect, ptr %12, i64 %indvars.iv
  store float %21, ptr %22, align 4
  %23 = getelementptr inbounds nuw i8, ptr %19, i64 4
  %24 = load float, ptr %23, align 4
  %25 = fmul float %18, %24
  %26 = getelementptr inbounds nuw i8, ptr %22, i64 4
  store float %25, ptr %26, align 4
  %27 = getelementptr inbounds nuw i8, ptr %22, i64 8
  store float %16, ptr %27, align 4
  %28 = getelementptr inbounds nuw i8, ptr %22, i64 12
  store float %18, ptr %28, align 4
  %indvars.iv.next = add nuw nsw i64 %indvars.iv, 1
  %exitcond.not = icmp eq i64 %indvars.iv.next, %wide.trip.count
  br i1 %exitcond.not, label %._crit_edge, label %.lr.ph, !llvm.loop !26

._crit_edge:                                      ; preds = %.lr.ph
  %29 = call fastcc zeroext i1 @QueueCmdFillRects(ptr noundef nonnull %0, ptr noundef %12, i32 noundef %2)
  br i1 %8, label %31, label %30

30:                                               ; preds = %._crit_edge
  call void @SDL_free_REAL(ptr noundef nonnull %12) #15
  br label %31

31:                                               ; preds = %30, %._crit_edge, %10, %3
  %.0 = phi i1 [ true, %3 ], [ false, %10 ], [ %29, %._crit_edge ], [ %29, %30 ]
  ret i1 %.0
}